target datalayout = "e-m:e-p270:32:32-p271:32:32-p272:64:64-i64:64-i128:128-f80:128-n8:16:32:64-S128"
target triple = "x86_64-pc-linux-gnu"

@LockingMode = external global i32, align 4

; Function Attrs: mustprogress nounwind uwtable
define linkonce_odr hidden noundef ptr @_ZN10JavaThread4castEP6Thread(ptr noundef %0) #1 comdat align 2 {
  %2 = alloca ptr, align 8
  store ptr %0, ptr %2, align 8
  %3 = load ptr, ptr %2, align 8
  ret ptr %3
}

; Function Attrs: mustprogress nounwind uwtable
define hidden noundef ptr @_ZN18ObjectSynchronizer7inflateEP6ThreadP7oopDescNS_12InflateCauseE(ptr noundef %0, ptr noundef %1, i32 noundef %2) #1 align 2 {
  %4 = alloca ptr, align 8
  %5 = alloca ptr, align 8
  %6 = alloca ptr, align 8
  %7 = alloca i32, align 4
  store ptr %0, ptr %5, align 8
  store ptr %1, ptr %6, align 8
  store i32 %2, ptr %7, align 4
  %8 = load i32, ptr @LockingMode, align 4
  %9 = icmp eq i32 %8, 2
  br i1 %9, label %10, label %22

10:                                               ; preds = %3
  %11 = load ptr, ptr %5, align 8
  %12 = load ptr, ptr %11, align 8
  %13 = getelementptr inbounds ptr, ptr %12, i64 7
  %14 = load ptr, ptr %13, align 8
  %15 = call noundef zeroext i1 %14(ptr noundef nonnull align 8 dereferenceable(888) %11)
  br i1 %15, label %16, label %22

16:                                               ; preds = %10
  %17 = load ptr, ptr %5, align 8
  %18 = call noundef ptr @_ZN10JavaThread4castEP6Thread(ptr noundef %17)
  %19 = load ptr, ptr %6, align 8
  %20 = load i32, ptr %7, align 4
  %21 = call noundef ptr @_ZN18ObjectSynchronizer12inflate_implEP10JavaThreadP7oopDescNS_12InflateCauseE(ptr noundef %18, ptr noundef %19, i32 noundef %20)
  store ptr %21, ptr %4, align 8
  br label %26

22:                                               ; preds = %10, %3
  %23 = load ptr, ptr %6, align 8
  %24 = load i32, ptr %7, align 4
  %25 = call noundef ptr @_ZN18ObjectSynchronizer12inflate_implEP10JavaThreadP7oopDescNS_12InflateCauseE(ptr noundef null, ptr noundef %23, i32 noundef %24)
  store ptr %25, ptr %4, align 8
  br label %26

26:                                               ; preds = %22, %16
  %27 = load ptr, ptr %4, align 8
  ret ptr %27
}

; Function Attrs: mustprogress nounwind uwtable
define hidden void @_ZN18ObjectSynchronizer8jni_exitEP7oopDescP10JavaThread(ptr noundef %0, ptr noundef %1) #1 align 2 {
  %3 = alloca ptr, align 8
  %4 = alloca ptr, align 8
  %5 = alloca ptr, align 8
  %6 = alloca ptr, align 8
  store ptr %0, ptr %3, align 8
  store ptr %1, ptr %4, align 8
  %7 = load ptr, ptr %4, align 8
  store ptr %7, ptr %5, align 8
  %8 = load ptr, ptr %5, align 8
  %9 = load ptr, ptr %3, align 8
  %10 = call noundef ptr @_ZN18ObjectSynchronizer7inflateEP6ThreadP7oopDescNS_12InflateCauseE(ptr noundef %8, ptr noundef %9, i32 noundef 6)
  store ptr %10, ptr %6, align 8
  %11 = load ptr, ptr %6, align 8
  %12 = load ptr, ptr %4, align 8
  %13 = call noundef zeroext i1 @_ZN13ObjectMonitor11check_ownerEP10JavaThread(ptr noundef nonnull align 8 dereferenceable(200) %11, ptr noundef %12)
  br i1 %13, label %14, label %18

14:                                               ; preds = %2
  %15 = load ptr, ptr %6, align 8
  %16 = load ptr, ptr %5, align 8
  call void @_ZN13ObjectMonitor4exitEP10JavaThreadb(ptr noundef nonnull align 8 dereferenceable(200) %15, ptr noundef %16, i1 noundef zeroext true)
  %17 = load ptr, ptr %5, align 8
  call void @_ZN10JavaThread22dec_held_monitor_countElb(ptr noundef nonnull align 8 dereferenceable(1800) %17, i64 noundef 1, i1 noundef zeroext true)
  br label %18

18:                                               ; preds = %14, %2
  ret void
}