; Function Attrs: mustprogress nounwind uwtable
define hidden void @_ZN18ObjectSynchronizer8jni_exitEP7oopDescP10JavaThread(ptr noundef %0, ptr noundef %1) local_unnamed_addr #0 align 2 {
  %3 = load i32, ptr @LockingMode, align 4
  %4 = icmp eq i32 %3, 2
  br i1 %4, label %5, label %12

5:                                                ; preds = %2
  %6 = load ptr, ptr %1, align 8
  %7 = getelementptr inbounds i8, ptr %6, i64 56
  %8 = load ptr, ptr %7, align 8
  %9 = tail call noundef zeroext i1 %8(ptr noundef nonnull align 8 dereferenceable(888) %1) #18
  br i1 %9, label %10, label %12

10:                                               ; preds = %5
  %11 = tail call noundef ptr @_ZN18ObjectSynchronizer12inflate_implEP10JavaThreadP7oopDescNS_12InflateCauseE(ptr noundef nonnull %1, ptr noundef %0, i32 noundef 6)
  br label %_ZN18ObjectSynchronizer7inflateEP6ThreadP7oopDescNS_12InflateCauseE.exit

12:                                               ; preds = %5, %2
  %13 = tail call noundef ptr @_ZN18ObjectSynchronizer12inflate_implEP10JavaThreadP7oopDescNS_12InflateCauseE(ptr noundef null, ptr noundef %0, i32 noundef 6)
  br label %_ZN18ObjectSynchronizer7inflateEP6ThreadP7oopDescNS_12InflateCauseE.exit

_ZN18ObjectSynchronizer7inflateEP6ThreadP7oopDescNS_12InflateCauseE.exit: ; preds = %10, %12
  %.0.i = phi ptr [ %11, %10 ], [ %13, %12 ]
  %14 = tail call noundef zeroext i1 @_ZN13ObjectMonitor11check_ownerEP10JavaThread(ptr noundef nonnull align 8 dereferenceable(200) %.0.i, ptr noundef %1) #18
  br i1 %14, label %15, label %16

15:                                               ; preds = %_ZN18ObjectSynchronizer7inflateEP6ThreadP7oopDescNS_12InflateCauseE.exit
  tail call void @_ZN13ObjectMonitor4exitEP10JavaThreadb(ptr noundef nonnull align 8 dereferenceable(200) %.0.i, ptr noundef %1, i1 noundef zeroext true) #18
  tail call void @_ZN10JavaThread22dec_held_monitor_countElb(ptr noundef nonnull align 8 dereferenceable(1800) %1, i64 noundef 1, i1 noundef zeroext true) #18
  br label %16

16:                                               ; preds = %15, %_ZN18ObjectSynchronizer7inflateEP6ThreadP7oopDescNS_12InflateCauseE.exit
  ret void
}